; Function Attrs: mustprogress uwtable
define hidden noundef ptr @_ZN7datalog30finite_product_relation_plugin8mk_emptyERKNS_18relation_signatureE(ptr noundef nonnull align 8 dereferenceable(112) %this, ptr nocapture noundef nonnull readonly align 8 dereferenceable(8) %s) unnamed_addr #3 align 2 personality ptr @__gxx_personality_v0 {
entry:
  %t_sort.i.i = alloca i64, align 8
  %table_columns = alloca %class.svector.40, align 8
  store ptr null, ptr %table_columns, align 8
  %m_manager.i.i = getelementptr inbounds i8, ptr %this, i64 24
  %0 = load ptr, ptr %m_manager.i.i, align 8
  call void @llvm.lifetime.start.p0(i64 8, ptr nonnull %t_sort.i.i)
  %1 = load ptr, ptr %s, align 8
  %cmp.i.i.i = icmp eq ptr %1, null
  br i1 %cmp.i.i.i, label %invoke.cont, label %_ZNK6vectorIP4sortLb0EjE4sizeEv.exit.i.i

_ZNK6vectorIP4sortLb0EjE4sizeEv.exit.i.i:         ; preds = %entry
  %arrayidx.i.i.i = getelementptr inbounds i8, ptr %1, i64 -4
  %2 = load i32, ptr %arrayidx.i.i.i, align 4
  %cmp8.not.i.i = icmp eq i32 %2, 0
  br i1 %cmp8.not.i.i, label %invoke.cont, label %for.body.preheader.i.i

for.body.preheader.i.i:                           ; preds = %_ZNK6vectorIP4sortLb0EjE4sizeEv.exit.i.i
  %wide.trip.count.i.i = zext i32 %2 to i64
  br label %for.body.i.i

for.body.i.i:                                     ; preds = %_ZN6vectorIbLb0EjE9push_backERKb.exit.i.i, %for.body.preheader.i.i
  %indvars.iv.i.i = phi i64 [ 0, %for.body.preheader.i.i ], [ %indvars.iv.next.i.i, %_ZN6vectorIbLb0EjE9push_backERKb.exit.i.i ]
  %3 = load ptr, ptr %s, align 8
  %arrayidx.i4.i.i = getelementptr inbounds ptr, ptr %3, i64 %indvars.iv.i.i
  %call2.i.i2 = invoke noundef zeroext i1 @_ZN7datalog16relation_manager22relation_sort_to_tableERKP4sortRm(ptr noundef nonnull align 8 dereferenceable(200) %0, ptr noundef nonnull align 8 dereferenceable(8) %arrayidx.i4.i.i, ptr noundef nonnull align 8 dereferenceable(8) %t_sort.i.i)
          to label %call2.i.i.noexc unwind label %lpad.loopexit

call2.i.i.noexc:                                  ; preds = %for.body.i.i
  %frombool.i.i = zext i1 %call2.i.i2 to i8
  %4 = load ptr, ptr %table_columns, align 8
  %cmp.i5.i.i = icmp eq ptr %4, null
  br i1 %cmp.i5.i.i, label %if.then.i.i.i, label %lor.lhs.false.i.i.i

lor.lhs.false.i.i.i:                              ; preds = %call2.i.i.noexc
  %arrayidx.i6.i.i = getelementptr inbounds i8, ptr %4, i64 -4
  %5 = load i32, ptr %arrayidx.i6.i.i, align 4
  %arrayidx4.i.i.i = getelementptr inbounds i8, ptr %4, i64 -8
  %6 = load i32, ptr %arrayidx4.i.i.i, align 4
  %cmp5.i.i.i = icmp eq i32 %5, %6
  br i1 %cmp5.i.i.i, label %if.then.i.i.i, label %_ZN6vectorIbLb0EjE9push_backERKb.exit.i.i

if.then.i.i.i:                                    ; preds = %lor.lhs.false.i.i.i, %call2.i.i.noexc
  invoke void @_ZN6vectorIbLb0EjE13expand_vectorEv(ptr noundef nonnull align 8 dereferenceable(8) %table_columns)
          to label %.noexc unwind label %lpad.loopexit

.noexc:                                           ; preds = %if.then.i.i.i
  %.pre.i.i.i = load ptr, ptr %table_columns, align 8
  %arrayidx8.phi.trans.insert.i.i.i = getelementptr inbounds i8, ptr %.pre.i.i.i, i64 -4
  %.pre1.i.i.i = load i32, ptr %arrayidx8.phi.trans.insert.i.i.i, align 4
  br label %_ZN6vectorIbLb0EjE9push_backERKb.exit.i.i

_ZN6vectorIbLb0EjE9push_backERKb.exit.i.i:        ; preds = %.noexc, %lor.lhs.false.i.i.i
  %7 = phi i32 [ %.pre1.i.i.i, %.noexc ], [ %5, %lor.lhs.false.i.i.i ]
  %8 = phi ptr [ %.pre.i.i.i, %.noexc ], [ %4, %lor.lhs.false.i.i.i ]
  %idx.ext.i.i.i = zext i32 %7 to i64
  %add.ptr.i.i.i = getelementptr inbounds i8, ptr %8, i64 %idx.ext.i.i.i
  store i8 %frombool.i.i, ptr %add.ptr.i.i.i, align 1
  %9 = load ptr, ptr %table_columns, align 8
  %arrayidx10.i.i.i = getelementptr inbounds i8, ptr %9, i64 -4
  %10 = load i32, ptr %arrayidx10.i.i.i, align 4
  %inc.i.i.i = add i32 %10, 1
  store i32 %inc.i.i.i, ptr %arrayidx10.i.i.i, align 4
  %indvars.iv.next.i.i = add nuw nsw i64 %indvars.iv.i.i, 1
  %exitcond.not.i.i = icmp eq i64 %indvars.iv.next.i.i, %wide.trip.count.i.i
  br i1 %exitcond.not.i.i, label %invoke.cont.loopexit, label %for.body.i.i, !llvm.loop !11

invoke.cont.loopexit:                             ; preds = %_ZN6vectorIbLb0EjE9push_backERKb.exit.i.i
  %.pre = load ptr, ptr %table_columns, align 8
  br label %invoke.cont

invoke.cont:                                      ; preds = %invoke.cont.loopexit, %_ZNK6vectorIP4sortLb0EjE4sizeEv.exit.i.i, %entry
  %11 = phi ptr [ %.pre, %invoke.cont.loopexit ], [ null, %_ZNK6vectorIP4sortLb0EjE4sizeEv.exit.i.i ], [ null, %entry ]
  call void @llvm.lifetime.end.p0(i64 8, ptr nonnull %t_sort.i.i)
  %call4 = invoke noundef ptr @_ZN7datalog30finite_product_relation_plugin8mk_emptyERKNS_18relation_signatureEPKbi(ptr noundef nonnull align 8 dereferenceable(112) %this, ptr noundef nonnull align 8 dereferenceable(8) %s, ptr noundef %11, i32 noundef -1)
          to label %invoke.cont3 unwind label %lpad.loopexit.split-lp

invoke.cont3:                                     ; preds = %invoke.cont
  %12 = load ptr, ptr %table_columns, align 8
  %tobool.not.i.i.i = icmp eq ptr %12, null
  br i1 %tobool.not.i.i.i, label %_ZN7svectorIbjED2Ev.exit, label %if.then.i.i.i3

if.then.i.i.i3:                                   ; preds = %invoke.cont3
  %add.ptr.i.i.i.i = getelementptr inbounds i8, ptr %12, i64 -8
  invoke void @_ZN6memory10deallocateEPv(ptr noundef nonnull %add.ptr.i.i.i.i)
          to label %_ZN7svectorIbjED2Ev.exit unwind label %terminate.lpad.i.i

terminate.lpad.i.i:                               ; preds = %if.then.i.i.i3
  %13 = landingpad { ptr, i32 }
          catch ptr null
  %14 = extractvalue { ptr, i32 } %13, 0
  call void @__clang_call_terminate(ptr %14) #22
  unreachable

_ZN7svectorIbjED2Ev.exit:                         ; preds = %invoke.cont3, %if.then.i.i.i3
  ret ptr %call4

lpad.loopexit:                                    ; preds = %for.body.i.i, %if.then.i.i.i
  %lpad.loopexit4 = landingpad { ptr, i32 }
          cleanup
  br label %lpad

lpad.loopexit.split-lp:                           ; preds = %invoke.cont
  %lpad.loopexit.split-lp5 = landingpad { ptr, i32 }
          cleanup
  br label %lpad

lpad:                                             ; preds = %lpad.loopexit.split-lp, %lpad.loopexit
  %lpad.phi = phi { ptr, i32 } [ %lpad.loopexit4, %lpad.loopexit ], [ %lpad.loopexit.split-lp5, %lpad.loopexit.split-lp ]
  call void @_ZN7svectorIbjED2Ev(ptr noundef nonnull align 8 dereferenceable(8) %table_columns) #20
  resume { ptr, i32 } %lpad.phi
}